target datalayout = "e-m:e-p270:32:32-p271:32:32-p272:64:64-i64:64-i128:128-f80:128-n8:16:32:64-S128"
target triple = "x86_64-unknown-linux-gnu"

%"struct.std::nothrow_t" = type { i8 }
%"class.zmq::reaper_t" = type <{ %"class.zmq::object_t.base", [4 x i8], %"struct.zmq::i_poll_events", %"class.zmq::mailbox_t", ptr, ptr, i32, i8, [3 x i8], i32, [4 x i8] }>
%"class.zmq::object_t.base" = type <{ ptr, ptr, i32 }>
%"struct.zmq::i_poll_events" = type { ptr }
%"class.zmq::mailbox_t" = type <{ %"class.zmq::i_mailbox", %"class.zmq::ypipe_t", %"class.zmq::signaler_t", [4 x i8], %"class.zmq::mutex_t", i8, [7 x i8] }>
%"class.zmq::i_mailbox" = type { ptr }
%"class.zmq::ypipe_t" = type { %"class.zmq::ypipe_base_t", %"class.zmq::yqueue_t", ptr, ptr, ptr, %"class.zmq::atomic_ptr_t.0" }
%"class.zmq::ypipe_base_t" = type { ptr }
%"class.zmq::yqueue_t" = type { ptr, i32, ptr, i32, ptr, i32, %"class.zmq::atomic_ptr_t" }
%"class.zmq::atomic_ptr_t" = type { %"struct.std::atomic" }
%"struct.std::atomic" = type { %"struct.std::__atomic_base" }
%"struct.std::__atomic_base" = type { ptr }
%"class.zmq::atomic_ptr_t.0" = type { %"struct.std::atomic.1" }
%"struct.std::atomic.1" = type { %"struct.std::__atomic_base.2" }
%"struct.std::__atomic_base.2" = type { ptr }
%"class.zmq::signaler_t" = type { i32, i32, i32 }
%"class.zmq::mutex_t" = type <{ %union.pthread_mutex_t, %union.pthread_mutexattr_t, [4 x i8] }>
%union.pthread_mutex_t = type { %struct.__pthread_mutex_s }
%struct.__pthread_mutex_s = type { i32, i32, i32, i32, i32, i16, i16, %struct.__pthread_internal_list }
%struct.__pthread_internal_list = type { ptr, ptr }
%union.pthread_mutexattr_t = type { i32 }

@_ZSt7nothrow = external global %"struct.std::nothrow_t", align 1
@stderr = external global ptr, align 8
@.str = private unnamed_addr constant [36 x i8] c"FATAL ERROR: OUT OF MEMORY (%s:%d)\0A\00", align 1
@.str.1 = private unnamed_addr constant [106 x i8] c"generated/home/dtcxzyw/WorkSpace/Projects/compilers/llvm-opt-benchmark/bench/libzmq/libzmq/src/reaper.cpp\00", align 1
@.str.2 = private unnamed_addr constant [27 x i8] c"FATAL ERROR: OUT OF MEMORY\00", align 1
@_ZTVN3zmq13i_poll_eventsE = linkonce_odr unnamed_addr constant { [7 x ptr] } { [7 x ptr] [ptr null, ptr @_ZTIN3zmq13i_poll_eventsE, ptr @_ZN3zmq13i_poll_eventsD2Ev, ptr @_ZN3zmq13i_poll_eventsD0Ev, ptr @__cxa_pure_virtual, ptr @__cxa_pure_virtual, ptr @__cxa_pure_virtual] }, comdat, align 8

; Function Attrs: mustprogress nounwind uwtable
define linkonce_odr void @_ZN3zmq13i_poll_eventsD2Ev(ptr noundef nonnull align 8 dereferenceable(8) %this) unnamed_addr #2 comdat align 2 {
entry:
  %this.addr = alloca ptr, align 8
  store ptr %this, ptr %this.addr, align 8
  ret void
}

; Function Attrs: mustprogress nounwind uwtable
define linkonce_odr void @_ZN3zmq13i_poll_eventsC2Ev(ptr noundef nonnull align 8 dereferenceable(8) %this) unnamed_addr #2 comdat align 2 {
entry:
  %this.addr = alloca ptr, align 8
  store ptr %this, ptr %this.addr, align 8
  %this1 = load ptr, ptr %this.addr, align 8
  store ptr getelementptr inbounds ({ [7 x ptr] }, ptr @_ZTVN3zmq13i_poll_eventsE, i32 0, i32 0, i32 2), ptr %this1, align 8
  ret void
}

; Function Attrs: mustprogress uwtable
define void @_ZN3zmq8reaper_tC2EPNS_5ctx_tEj(ptr noundef nonnull align 8 dereferenceable(240) %this, ptr noundef %ctx_, i32 noundef %tid_) unnamed_addr #0 align 2 personality ptr @__gxx_personality_v0 {
entry:
  %this.addr = alloca ptr, align 8
  %ctx_.addr = alloca ptr, align 8
  %tid_.addr = alloca i32, align 4
  %exn.slot = alloca ptr, align 8
  %ehselector.slot = alloca i32, align 4
  %saved-rvalue = alloca ptr, align 8
  %cleanup.cond = alloca i1, align 1
  store ptr %this, ptr %this.addr, align 8
  store ptr %ctx_, ptr %ctx_.addr, align 8
  store i32 %tid_, ptr %tid_.addr, align 4
  %this1 = load ptr, ptr %this.addr, align 8
  %0 = load ptr, ptr %ctx_.addr, align 8
  %1 = load i32, ptr %tid_.addr, align 4
  call void @_ZN3zmq8object_tC2EPNS_5ctx_tEj(ptr noundef nonnull align 8 dereferenceable(20) %this1, ptr noundef %0, i32 noundef %1)
  %2 = getelementptr inbounds i8, ptr %this1, i64 24
  call void @_ZN3zmq13i_poll_eventsC2Ev(ptr noundef nonnull align 8 dereferenceable(8) %2) #10
  store ptr getelementptr inbounds ({ [28 x ptr], [7 x ptr] }, ptr @_ZTVN3zmq8reaper_tE, i32 0, i32 0, i32 2), ptr %this1, align 8
  %add.ptr = getelementptr inbounds i8, ptr %this1, i64 24
  store ptr getelementptr inbounds ({ [28 x ptr], [7 x ptr] }, ptr @_ZTVN3zmq8reaper_tE, i32 0, i32 1, i32 2), ptr %add.ptr, align 8
  %_mailbox = getelementptr inbounds %"class.zmq::reaper_t", ptr %this1, i32 0, i32 3
  invoke void @_ZN3zmq9mailbox_tC1Ev(ptr noundef nonnull align 8 dereferenceable(176) %_mailbox)
          to label %invoke.cont unwind label %lpad

invoke.cont:                                      ; preds = %entry
  %_mailbox_handle = getelementptr inbounds %"class.zmq::reaper_t", ptr %this1, i32 0, i32 4
  store ptr null, ptr %_mailbox_handle, align 8
  %_poller = getelementptr inbounds %"class.zmq::reaper_t", ptr %this1, i32 0, i32 5
  store ptr null, ptr %_poller, align 8
  %_sockets = getelementptr inbounds %"class.zmq::reaper_t", ptr %this1, i32 0, i32 6
  store i32 0, ptr %_sockets, align 8
  %_terminating = getelementptr inbounds %"class.zmq::reaper_t", ptr %this1, i32 0, i32 7
  store i8 0, ptr %_terminating, align 4
  %_mailbox2 = getelementptr inbounds %"class.zmq::reaper_t", ptr %this1, i32 0, i32 3
  %call = invoke noundef zeroext i1 @_ZNK3zmq9mailbox_t5validEv(ptr noundef nonnull align 8 dereferenceable(176) %_mailbox2)
          to label %invoke.cont4 unwind label %lpad3

invoke.cont4:                                     ; preds = %invoke.cont
  br i1 %call, label %if.end, label %if.then

if.then:                                          ; preds = %invoke.cont4
  br label %return

lpad:                                             ; preds = %entry
  %3 = landingpad { ptr, i32 }
          cleanup
  %4 = extractvalue { ptr, i32 } %3, 0
  store ptr %4, ptr %exn.slot, align 8
  %5 = extractvalue { ptr, i32 } %3, 1
  store i32 %5, ptr %ehselector.slot, align 4
  br label %ehcleanup34

lpad3:                                            ; preds = %invoke.cont26, %invoke.cont23, %if.then20, %do.end, %invoke.cont13, %invoke.cont11, %if.then10, %invoke.cont
  %6 = landingpad { ptr, i32 }
          cleanup
  %7 = extractvalue { ptr, i32 } %6, 0
  store ptr %7, ptr %exn.slot, align 8
  %8 = extractvalue { ptr, i32 } %6, 1
  store i32 %8, ptr %ehselector.slot, align 4
  br label %ehcleanup

if.end:                                           ; preds = %invoke.cont4
  %call5 = call noalias noundef ptr @_ZnwmRKSt9nothrow_t(i64 noundef 224, ptr noundef nonnull align 1 dereferenceable(1) @_ZSt7nothrow) #11
  %new.isnull = icmp eq ptr %call5, null
  store i1 false, ptr %cleanup.cond, align 1
  br i1 %new.isnull, label %new.cont, label %new.notnull

new.notnull:                                      ; preds = %if.end
  store ptr %call5, ptr %saved-rvalue, align 8
  store i1 true, ptr %cleanup.cond, align 1
  %9 = load ptr, ptr %ctx_.addr, align 8
  invoke void @_ZN3zmq7epoll_tC1ERKNS_12thread_ctx_tE(ptr noundef nonnull align 8 dereferenceable(224) %call5, ptr noundef nonnull align 8 dereferenceable(136) %9)
          to label %invoke.cont7 unwind label %lpad6

invoke.cont7:                                     ; preds = %new.notnull
  br label %new.cont

new.cont:                                         ; preds = %invoke.cont7, %if.end
  %10 = phi ptr [ %call5, %invoke.cont7 ], [ null, %if.end ]
  %_poller8 = getelementptr inbounds %"class.zmq::reaper_t", ptr %this1, i32 0, i32 5
  store ptr %10, ptr %_poller8, align 8
  br label %do.body

do.body:                                          ; preds = %new.cont
  %_poller9 = getelementptr inbounds %"class.zmq::reaper_t", ptr %this1, i32 0, i32 5
  %11 = load ptr, ptr %_poller9, align 8
  %tobool = icmp ne ptr %11, null
  %lnot = xor i1 %tobool, true
  br i1 %lnot, label %if.then10, label %if.end16

if.then10:                                        ; preds = %do.body
  %12 = load ptr, ptr @stderr, align 8
  %call12 = invoke i32 (ptr, ptr, ...) @fprintf(ptr noundef %12, ptr noundef @.str, ptr noundef @.str.1, i32 noundef 20)
          to label %invoke.cont11 unwind label %lpad3

invoke.cont11:                                    ; preds = %if.then10
  %13 = load ptr, ptr @stderr, align 8
  %call14 = invoke i32 @fflush(ptr noundef %13)
          to label %invoke.cont13 unwind label %lpad3

invoke.cont13:                                    ; preds = %invoke.cont11
  invoke void @_ZN3zmq9zmq_abortEPKc(ptr noundef @.str.2)
          to label %invoke.cont15 unwind label %lpad3

invoke.cont15:                                    ; preds = %invoke.cont13
  br label %if.end16

lpad6:                                            ; preds = %new.notnull
  %14 = landingpad { ptr, i32 }
          cleanup
  %15 = extractvalue { ptr, i32 } %14, 0
  store ptr %15, ptr %exn.slot, align 8
  %16 = extractvalue { ptr, i32 } %14, 1
  store i32 %16, ptr %ehselector.slot, align 4
  %cleanup.is_active = load i1, ptr %cleanup.cond, align 1
  br i1 %cleanup.is_active, label %cleanup.action, label %cleanup.done

cleanup.action:                                   ; preds = %lpad6
  %17 = load ptr, ptr %saved-rvalue, align 8
  call void @_ZdlPvRKSt9nothrow_t(ptr noundef %17, ptr noundef nonnull align 1 dereferenceable(1) @_ZSt7nothrow) #12
  br label %cleanup.done

cleanup.done:                                     ; preds = %cleanup.action, %lpad6
  br label %ehcleanup

if.end16:                                         ; preds = %invoke.cont15, %do.body
  br label %do.cond

do.cond:                                          ; preds = %if.end16
  br label %do.end

do.end:                                           ; preds = %do.cond
  %_mailbox17 = getelementptr inbounds %"class.zmq::reaper_t", ptr %this1, i32 0, i32 3
  %call19 = invoke noundef i32 @_ZNK3zmq9mailbox_t6get_fdEv(ptr noundef nonnull align 8 dereferenceable(176) %_mailbox17)
          to label %invoke.cont18 unwind label %lpad3

invoke.cont18:                                    ; preds = %do.end
  %cmp = icmp ne i32 %call19, -1
  br i1 %cmp, label %if.then20, label %if.end32

if.then20:                                        ; preds = %invoke.cont18
  %_poller21 = getelementptr inbounds %"class.zmq::reaper_t", ptr %this1, i32 0, i32 5
  %18 = load ptr, ptr %_poller21, align 8
  %_mailbox22 = getelementptr inbounds %"class.zmq::reaper_t", ptr %this1, i32 0, i32 3
  %call24 = invoke noundef i32 @_ZNK3zmq9mailbox_t6get_fdEv(ptr noundef nonnull align 8 dereferenceable(176) %_mailbox22)
          to label %invoke.cont23 unwind label %lpad3

invoke.cont23:                                    ; preds = %if.then20
  %add.ptr25 = getelementptr inbounds i8, ptr %this1, i64 24
  %call27 = invoke noundef ptr @_ZN3zmq7epoll_t6add_fdEiPNS_13i_poll_eventsE(ptr noundef nonnull align 8 dereferenceable(224) %18, i32 noundef %call24, ptr noundef %add.ptr25)
          to label %invoke.cont26 unwind label %lpad3

invoke.cont26:                                    ; preds = %invoke.cont23
  %_mailbox_handle28 = getelementptr inbounds %"class.zmq::reaper_t", ptr %this1, i32 0, i32 4
  store ptr %call27, ptr %_mailbox_handle28, align 8
  %_poller29 = getelementptr inbounds %"class.zmq::reaper_t", ptr %this1, i32 0, i32 5
  %19 = load ptr, ptr %_poller29, align 8
  %_mailbox_handle30 = getelementptr inbounds %"class.zmq::reaper_t", ptr %this1, i32 0, i32 4
  %20 = load ptr, ptr %_mailbox_handle30, align 8
  invoke void @_ZN3zmq7epoll_t10set_pollinEPv(ptr noundef nonnull align 8 dereferenceable(224) %19, ptr noundef %20)
          to label %invoke.cont31 unwind label %lpad3

invoke.cont31:                                    ; preds = %invoke.cont26
  br label %if.end32

if.end32:                                         ; preds = %invoke.cont31, %invoke.cont18
  %call33 = call i32 @getpid() #10
  %_pid = getelementptr inbounds %"class.zmq::reaper_t", ptr %this1, i32 0, i32 9
  store i32 %call33, ptr %_pid, align 8
  br label %return

return:                                           ; preds = %if.end32, %if.then
  ret void

ehcleanup:                                        ; preds = %cleanup.done, %lpad3
  call void @_ZN3zmq9mailbox_tD1Ev(ptr noundef nonnull align 8 dereferenceable(176) %_mailbox) #10
  br label %ehcleanup34

ehcleanup34:                                      ; preds = %ehcleanup, %lpad
  %21 = getelementptr inbounds i8, ptr %this1, i64 24
  call void @_ZN3zmq13i_poll_eventsD2Ev(ptr noundef nonnull align 8 dereferenceable(8) %21) #10
  call void @_ZN3zmq8object_tD2Ev(ptr noundef nonnull align 8 dereferenceable(20) %this1) #10
  br label %eh.resume

eh.resume:                                        ; preds = %ehcleanup34
  %exn = load ptr, ptr %exn.slot, align 8
  %sel = load i32, ptr %ehselector.slot, align 4
  %lpad.val = insertvalue { ptr, i32 } poison, ptr %exn, 0
  %lpad.val36 = insertvalue { ptr, i32 } %lpad.val, i32 %sel, 1
  resume { ptr, i32 } %lpad.val36
}