; Function Attrs: mustprogress uwtable
define void @_ZN3zmq8reaper_tC2EPNS_5ctx_tEj(ptr noundef nonnull align 8 dereferenceable(240) %this, ptr noundef %ctx_, i32 noundef %tid_) unnamed_addr #0 align 2 personality ptr @__gxx_personality_v0 {
entry:
  tail call void @_ZN3zmq8object_tC2EPNS_5ctx_tEj(ptr noundef nonnull align 8 dereferenceable(20) %this, ptr noundef %ctx_, i32 noundef %tid_)
  %0 = getelementptr inbounds i8, ptr %this, i64 24
  store ptr getelementptr inbounds ({ [28 x ptr], [7 x ptr] }, ptr @_ZTVN3zmq8reaper_tE, i64 0, i32 0, i64 2), ptr %this, align 8
  store ptr getelementptr inbounds ({ [28 x ptr], [7 x ptr] }, ptr @_ZTVN3zmq8reaper_tE, i64 0, i32 1, i64 2), ptr %0, align 8
  %_mailbox = getelementptr inbounds i8, ptr %this, i64 32
  invoke void @_ZN3zmq9mailbox_tC1Ev(ptr noundef nonnull align 8 dereferenceable(176) %_mailbox)
          to label %invoke.cont unwind label %lpad

invoke.cont:                                      ; preds = %entry
  %_mailbox_handle = getelementptr inbounds i8, ptr %this, i64 208
  %_poller = getelementptr inbounds i8, ptr %this, i64 216
  tail call void @llvm.memset.p0.i64(ptr noundef nonnull align 8 dereferenceable(21) %_mailbox_handle, i8 0, i64 21, i1 false)
  %call = invoke noundef zeroext i1 @_ZNK3zmq9mailbox_t5validEv(ptr noundef nonnull align 8 dereferenceable(176) %_mailbox)
          to label %invoke.cont4 unwind label %lpad3

invoke.cont4:                                     ; preds = %invoke.cont
  br i1 %call, label %if.end, label %return

lpad:                                             ; preds = %entry
  %1 = landingpad { ptr, i32 }
          cleanup
  br label %ehcleanup34

lpad3:                                            ; preds = %invoke.cont26, %invoke.cont23, %if.then20, %do.end, %if.then10, %invoke.cont
  %2 = landingpad { ptr, i32 }
          cleanup
  br label %ehcleanup

if.end:                                           ; preds = %invoke.cont4
  %call5 = tail call noalias noundef dereferenceable_or_null(224) ptr @_ZnwmRKSt9nothrow_t(i64 noundef 224, ptr noundef nonnull align 1 dereferenceable(1) @_ZSt7nothrow) #12
  %new.isnull = icmp eq ptr %call5, null
  br i1 %new.isnull, label %if.then10, label %new.notnull

new.notnull:                                      ; preds = %if.end
  invoke void @_ZN3zmq7epoll_tC1ERKNS_12thread_ctx_tE(ptr noundef nonnull align 8 dereferenceable(224) %call5, ptr noundef nonnull align 8 dereferenceable(136) %ctx_)
          to label %new.cont unwind label %lpad6

new.cont:                                         ; preds = %new.notnull
  store ptr %call5, ptr %_poller, align 8
  br label %do.end

if.then10:                                        ; preds = %if.end
  store ptr null, ptr %_poller, align 8
  %3 = load ptr, ptr @stderr, align 8
  %call12 = tail call i32 (ptr, ptr, ...) @fprintf(ptr noundef %3, ptr noundef nonnull @.str, ptr noundef nonnull @.str.1, i32 noundef 20) #13
  %4 = load ptr, ptr @stderr, align 8
  %call14 = tail call i32 @fflush(ptr noundef %4)
  invoke void @_ZN3zmq9zmq_abortEPKc(ptr noundef nonnull @.str.2)
          to label %do.end unwind label %lpad3

lpad6:                                            ; preds = %new.notnull
  %5 = landingpad { ptr, i32 }
          cleanup
  tail call void @_ZdlPvRKSt9nothrow_t(ptr noundef nonnull %call5, ptr noundef nonnull align 1 dereferenceable(1) @_ZSt7nothrow) #14
  br label %ehcleanup

do.end:                                           ; preds = %new.cont, %if.then10
  %call19 = invoke noundef i32 @_ZNK3zmq9mailbox_t6get_fdEv(ptr noundef nonnull align 8 dereferenceable(176) %_mailbox)
          to label %invoke.cont18 unwind label %lpad3

invoke.cont18:                                    ; preds = %do.end
  %cmp.not = icmp eq i32 %call19, -1
  br i1 %cmp.not, label %if.end32, label %if.then20

if.then20:                                        ; preds = %invoke.cont18
  %6 = load ptr, ptr %_poller, align 8
  %call24 = invoke noundef i32 @_ZNK3zmq9mailbox_t6get_fdEv(ptr noundef nonnull align 8 dereferenceable(176) %_mailbox)
          to label %invoke.cont23 unwind label %lpad3

invoke.cont23:                                    ; preds = %if.then20
  %call27 = invoke noundef ptr @_ZN3zmq7epoll_t6add_fdEiPNS_13i_poll_eventsE(ptr noundef nonnull align 8 dereferenceable(224) %6, i32 noundef %call24, ptr noundef nonnull %0)
          to label %invoke.cont26 unwind label %lpad3

invoke.cont26:                                    ; preds = %invoke.cont23
  store ptr %call27, ptr %_mailbox_handle, align 8
  %7 = load ptr, ptr %_poller, align 8
  invoke void @_ZN3zmq7epoll_t10set_pollinEPv(ptr noundef nonnull align 8 dereferenceable(224) %7, ptr noundef %call27)
          to label %if.end32 unwind label %lpad3

if.end32:                                         ; preds = %invoke.cont26, %invoke.cont18
  %call33 = tail call i32 @getpid() #15
  %_pid = getelementptr inbounds i8, ptr %this, i64 232
  store i32 %call33, ptr %_pid, align 8
  br label %return

return:                                           ; preds = %invoke.cont4, %if.end32
  ret void

ehcleanup:                                        ; preds = %lpad6, %lpad3
  %.pn = phi { ptr, i32 } [ %2, %lpad3 ], [ %5, %lpad6 ]
  tail call void @_ZN3zmq9mailbox_tD1Ev(ptr noundef nonnull align 8 dereferenceable(176) %_mailbox) #15
  br label %ehcleanup34

ehcleanup34:                                      ; preds = %ehcleanup, %lpad
  %.pn.pn = phi { ptr, i32 } [ %.pn, %ehcleanup ], [ %1, %lpad ]
  tail call void @_ZN3zmq8object_tD2Ev(ptr noundef nonnull align 8 dereferenceable(20) %this) #15
  resume { ptr, i32 } %.pn.pn
}